(dp0
S'addr_state'
p1
(dp2
VWA
p3
F0.12702702702702703
sVDE
p4
F0.1016949152542373
sVDC
p5
F0.047619047619047616
sVWI
p6
F0.125
sVWV
p7
F0.06666666666666667
sVHI
p8
F0.11842105263157894
sVFL
p9
F0.13944530046224962
sVWY
p10
F0.027777777777777776
sVNH
p11
F0.1111111111111111
sVNJ
p12
F0.1263408820023838
sVNM
p13
F0.11392405063291139
sVTX
p14
F0.08624898291293735
sVLA
p15
F0.08947368421052632
sVNC
p16
F0.11824324324324324
sVNE
p17
F0.6666666666666666
sVTN
p18
F0.16666666666666666
sVNY
p19
F0.09970149253731343
sVPA
p20
F0.07547169811320754
sVCA
p21
F0.1326341764342998
sVNV
p22
F0.20398009950248755
sVVA
p23
F0.08528428093645485
sVCO
p24
F0.09686609686609686
sVAK
p25
F0.1935483870967742
sVAL
p26
F0.06190476190476191
sVAR
p27
F0.07692307692307693
sVVT
p28
F0.0
sVIL
p29
F0.09130434782608696
sVGA
p30
F0.14037854889589904
sVIN
p31
F0.0
sVIA
p32
F0.0
sVOK
p33
F0.10317460317460317
sVAZ
p34
F0.14905149051490515
sVID
p35
F0.3333333333333333
sVCT
p36
F0.07920792079207921
sVME
p37
F0.0
sVMD
p38
F0.09954751131221719
sVMA
p39
F0.09598603839441536
sVOH
p40
F0.09586466165413533
sVUT
p41
F0.13392857142857142
sVMO
p42
F0.1506849315068493
sVMN
p43
F0.09154929577464789
sVMI
p44
F0.10437710437710437
sVRI
p45
F0.09782608695652174
sVKS
p46
F0.0967741935483871
sVMT
p47
F0.0625
sVMS
p48
F0.0
sVSC
p49
F0.08947368421052632
sVKY
p50
F0.08870967741935484
sVOR
p51
F0.13366336633663367
sVSD
p52
F0.1111111111111111
ssS'purpose'
p53
(dp54
Vdebt_consolidation
p55
F0.11313131313131314
sVeducational
p56
F0.20555555555555555
sVcar
p57
F0.08290155440414508
sVmedical
p58
F0.14193548387096774
sVwedding
p59
F0.07962529274004684
sVrenewable_energy
p60
F0.125
sVcredit_card
p61
F0.07701711491442542
sVother
p62
F0.13670613562970937
sVmoving
p63
F0.1326530612244898
sVvacation
p64
F0.1
sVhouse
p65
F0.12080536912751678
sVsmall_business
p66
F0.21715076071922546
sVmajor_purchase
p67
F0.07940904893813482
sVhome_improvement
p68
F0.09983766233766234
ssS'zip_code'
p69
(dp70
V870xx
p71
F0.0
sV905xx
p72
F0.23076923076923078
sV191xx
p73
F0.047619047619047616
sV770xx
p74
F0.09655172413793103
sV548xx
p75
F0.25
sV725xx
p76
F0.0
sV217xx
p77
F0.05128205128205128
sV531xx
p78
F0.11538461538461539
sV316xx
p79
F0.3333333333333333
sV813xx
p80
F0.0
sV613xx
p81
F0.0
sV935xx
p82
F0.3333333333333333
sV490xx
p83
F0.0
sV169xx
p84
F0.0
sV392xx
p85
F0.0
sV625xx
p86
F0.0
sV286xx
p87
F0.11764705882352941
sV051xx
p88
F0.0
sV722xx
p89
F0.0
sV975xx
p90
F0.09090909090909091
sV268xx
p91
F0.3333333333333333
sV216xx
p92
F0.23076923076923078
sV532xx
p93
F0.10416666666666667
sV300xx
p94
F0.13131313131313133
sV852xx
p95
F0.18421052631578946
sV921xx
p96
F0.1464968152866242
sV940xx
p97
F0.16363636363636364
sV294xx
p98
F0.034482758620689655
sV321xx
p99
F0.17647058823529413
sV631xx
p100
F0.1
sV657xx
p101
F0.17647058823529413
sV763xx
p102
F0.0
sV539xx
p103
F0.0
sV571xx
p104
F0.25
sV755xx
p105
F0.0
sV161xx
p106
F0.2
sV336xx
p107
F0.19047619047619047
sV456xx
p108
F0.07692307692307693
sV851xx
p109
F0.15384615384615385
sV825xx
p110
F0.0
sV939xx
p111
F0.25
sV919xx
p112
F0.10256410256410256
sV943xx
p113
F0.0
sV034xx
p114
F0.0
sV242xx
p115
F0.0
sV762xx
p116
F0.2222222222222222
sV473xx
p117
F0.0
sV963xx
p118
F0.0
sV577xx
p119
F0.0
sV278xx
p120
F0.3333333333333333
sV007xx
p121
F0.0
sV330xx
p122
F0.11711711711711711
sV365xx
p123
F0.0
sV675xx
p124
F0.25
sV427xx
p125
F0.3333333333333333
sV119xx
p126
F0.07142857142857142
sV075xx
p127
F0.16666666666666666
sV934xx
p128
F0.08823529411764706
sV157xx
p129
F0.1111111111111111
sV357xx
p130
F0.0
sV486xx
p131
F0.0
sV711xx
p132
F0.25
sV884xx
p133
F0.0
sV130xx
p134
F0.12
sV914xx
p135
F0.13793103448275862
sV774xx
p136
F0.08064516129032258
sV017xx
p137
F0.05714285714285714
sV863xx
p138
F0.18181818181818182
sV069xx
p139
F0.0
sV730xx
p140
F0.11764705882352941
sV105xx
p141
F0.0851063829787234
sV199xx
p142
F0.0625
sV540xx
p143
F0.2857142857142857
sV437xx
p144
F0.0
sV347xx
p145
F0.21951219512195122
sV487xx
p146
F0.0
sV147xx
p147
F0.125
sV401xx
p148
F0.3333333333333333
sV777xx
p149
F0.0
sV137xx
p150
F0.0
sV712xx
p151
F0.0
sV705xx
p152
F0.14285714285714285
sV557xx
p153
F0.14285714285714285
sV262xx
p154
F0.0
sV207xx
p155
F0.125
sV598xx
p156
F0.0
sV027xx
p157
F0.06451612903225806
sV634xx
p158
F0.0
sV731xx
p159
F0.08571428571428572
sV175xx
p160
F0.16666666666666666
sV803xx
p161
F0.0
sV186xx
p162
F0.0
sV138xx
p163
F0.0
sV308xx
p164
F0.26666666666666666
sV052xx
p165
F0.0
sV228xx
p166
F0.0
sV953xx
p167
F0.18181818181818182
sV704xx
p168
F0.058823529411764705
sV415xx
p169
F0.0
sV782xx
p170
F0.07017543859649122
sV949xx
p171
F0.04
sV551xx
p172
F0.05263157894736842
sV720xx
p173
F0.043478260869565216
sV798xx
p174
F0.0
sV021xx
p175
F0.07222222222222222
sV214xx
p176
F0.0
sV902xx
p177
F0.10679611650485436
sV658xx
p178
F0.06666666666666667
sV530xx
p179
F0.1111111111111111
sV173xx
p180
F0.0
sV635xx
p181
F0.0
sV302xx
p182
F0.18
sV843xx
p183
F0.0
sV491xx
p184
F0.0
sV391xx
p185
F0.0
sV379xx
p186
F0.0
sV129xx
p187
F0.21428571428571427
sV955xx
p188
F0.18181818181818182
sV116xx
p189
F0.125
sV281xx
p190
F0.043478260869565216
sV276xx
p191
F0.0625
sV604xx
p192
F0.13636363636363635
sV224xx
p193
F0.09090909090909091
sV723xx
p194
F0.0
sV656xx
p195
F0.0
sV083xx
p196
F0.15789473684210525
sV163xx
p197
F0.0
sV349xx
p198
F0.10344827586206896
sV853xx
p199
F0.13333333333333333
sV338xx
p200
F0.13793103448275862
sV128xx
p201
F0.16666666666666666
sV941xx
p202
F0.04918032786885246
sV111xx
p203
F0.08333333333333333
sV295xx
p204
F0.16
sV728xx
p205
F0.0
sV029xx
p206
F0.08
sV497xx
p207
F0.2
sV760xx
p208
F0.1
sV244xx
p209
F0.14285714285714285
sV719xx
p210
F0.25
sV538xx
p211
F0.0
sV973xx
p212
F0.0967741935483871
sV654xx
p213
F0.0
sV661xx
p214
F0.0
sV754xx
p215
F0.14285714285714285
sV371xx
p216
F0.0
sV386xx
p217
F0.0
sV061xx
p218
F0.06896551724137931
sV292xx
p219
F0.05
sV327xx
p220
F0.08450704225352113
sV640xx
p221
F0.11764705882352941
sV035xx
p222
F0.5
sV766xx
p223
F0.16666666666666666
sV234xx
p224
F0.20689655172413793
sV882xx
p225
F0.25
sV561xx
p226
F0.0
sV240xx
p227
F0.11538461538461539
sV989xx
p228
F0.0
sV011xx
p229
F0.0
sV597xx
p230
F0.1
sV118xx
p231
F0.0
sV103xx
p232
F0.11538461538461539
sV485xx
p233
F0.0
sV833xx
p234
F1.0
sV710xx
p235
F0.3333333333333333
sV883xx
p236
F0.25
sV528xx
p237
F0.0
sV288xx
p238
F0.125
sV559xx
p239
F0.08333333333333333
sV363xx
p240
F0.1111111111111111
sV010xx
p241
F0.13157894736842105
sV073xx
p242
F0.08163265306122448
sV801xx
p243
F0.06
sV102xx
p244
F0.0
sV184xx
p245
F0.0
sV136xx
p246
F0.1
sV706xx
p247
F0.0
sV981xx
p248
F0.12658227848101267
sV289xx
p249
F0.0
sV019xx
p250
F0.08571428571428572
sV193xx
p251
F0.07692307692307693
sV206xx
p252
F0.14814814814814814
sV026xx
p253
F0.2
sV903xx
p254
F0.2
sV314xx
p255
F0.21052631578947367
sV546xx
p256
F0.14285714285714285
sV174xx
p257
F0.0
sV492xx
p258
F0.0
sV341xx
p259
F0.22727272727272727
sV053xx
p260
F0.0
sV894xx
p261
F0.0
sV952xx
p262
F0.13333333333333333
sV120xx
p263
F0.17391304347826086
sV280xx
p264
F0.05263157894736842
sV957xx
p265
F0.12
sV700xx
p266
F0.07407407407407407
sV895xx
p267
F0.12121212121212122
sV283xx
p268
F0.16666666666666666
sV298xx
p269
F0.0
sV930xx
p270
F0.16981132075471697
sV208xx
p271
F0.09375
sV721xx
p272
F0.0
sV081xx
p273
F0.125
sV605xx
p274
F0.06382978723404255
sV172xx
p275
F0.0
sV303xx
p276
F0.08035714285714286
sV165xx
p277
F0.2857142857142857
sV855xx
p278
F0.0
sV947xx
p279
F0.0
sV629xx
p280
F0.0
sV443xx
p281
F0.16666666666666666
sV971xx
p282
F0.21739130434782608
sV212xx
p283
F0.08860759493670886
sV304xx
p284
F0.08333333333333333
sV827xx
p285
F0.0
sV164xx
p286
F0.3333333333333333
sV752xx
p287
F0.06315789473684211
sV063xx
p288
F0.0
sV290xx
p289
F0.13333333333333333
sV325xx
p290
F0.09375
sV110xx
p291
F0.0
sV729xx
p292
F0.0
sV222xx
p293
F0.10204081632653061
sV453xx
p294
F0.125
sV033xx
p295
F0.0
sV718xx
p296
F0.2
sV788xx
p297
F0.0
sV972xx
p298
F0.1320754716981132
sV332xx
p299
F0.0
sV995xx
p300
F0.21428571428571427
sV293xx
p301
F0.0
sV355xx
p302
F0.0
sV354xx
p303
F0.0
sV455xx
p304
F0.0
sV916xx
p305
F0.09375
sV716xx
p306
F0.0
sV745xx
p307
F0.0
sV152xx
p308
F0.046875
sV746xx
p309
F0.5
sV361xx
p310
F0.09090909090909091
sV012xx
p311
F0.0
sV071xx
p312
F0.14285714285714285
sV100xx
p313
F0.1056338028169014
sV353xx
p314
F0.0
sV041xx
p315
F0.0
sV134xx
p316
F0.07692307692307693
sV465xx
p317
F0.0
sV708xx
p318
F0.15
sV404xx
p319
F0.0
sV200xx
p320
F0.047619047619047616
sV544xx
p321
F0.3333333333333333
sV089xx
p322
F0.0625
sV800xx
p323
F0.16666666666666666
sV797xx
p324
F0.08333333333333333
sV312xx
p325
F0.2
sV483xx
p326
F0.06976744186046512
sV122xx
p327
F0.0
sV553xx
p328
F0.1956521739130435
sV820xx
p329
F0.1111111111111111
sV250xx
p330
F0.0
sV651xx
p331
F0.0
sV023xx
p332
F0.058823529411764705
sV079xx
p333
F0.11764705882352941
sV735xx
p334
F0.1
sV900xx
p335
F0.10256410256410256
sV877xx
p336
F0.0
sV171xx
p337
F0.0
sV807xx
p338
F0.0
sV499xx
p339
F0.5
sV787xx
p340
F0.023255813953488372
sV313xx
p341
F0.125
sV615xx
p342
F0.0
sV841xx
p343
F0.18181818181818182
sV493xx
p344
F0.0
sV619xx
p345
F0.3333333333333333
sV124xx
p346
F0.125
sV608xx
p347
F0.5
sV620xx
p348
F0.0
sV189xx
p349
F0.16
sV299xx
p350
F0.09090909090909091
sV256xx
p351
F0.0
sV441xx
p352
F0.04918032786885246
sV210xx
p353
F0.11864406779661017
sV906xx
p354
F0.18604651162790697
sV038xx
p355
F0.15384615384615385
sV080xx
p356
F0.17708333333333334
sV928xx
p357
F0.13402061855670103
sV306xx
p358
F0.10344827586206896
sV781xx
p359
F0.1
sV166xx
p360
F0.3333333333333333
sV273xx
p361
F0.15384615384615385
sV810xx
p362
F0.5
sV395xx
p363
F0.0
sV829xx
p364
F0.0
sV112xx
p365
F0.09504132231404959
sV285xx
p366
F0.13333333333333333
sV944xx
p367
F0.0
sV612xx
p368
F0.0
sV323xx
p369
F0.2222222222222222
sV220xx
p370
F0.037037037037037035
sV936xx
p371
F0.1111111111111111
sV970xx
p372
F0.08333333333333333
sV087xx
p373
F0.20588235294117646
sV626xx
p374
F0.0
sV772xx
p375
F0.0
sV274xx
p376
F0.0625
sV305xx
p377
F0.16216216216216217
sV997xx
p378
F0.2
sV826xx
p379
F0.0
sV334xx
p380
F0.09433962264150944
sV369xx
p381
F0.0
sV062xx
p382
F0.06666666666666667
sV381xx
p383
F0.0
sV291xx
p384
F0.14285714285714285
sV108xx
p385
F0.0
sV664xx
p386
F0.0
sV322xx
p387
F0.08196721311475409
sV744xx
p388
F0.4
sV218xx
p389
F0.0
sV913xx
p390
F0.16101694915254236
sV236xx
p391
F0.0
sV920xx
p392
F0.12222222222222222
sV630xx
p393
F0.22580645161290322
sV335xx
p394
F0.14754098360655737
sV065xx
p395
F0.125
sV064xx
p396
F0.09090909090909091
sV328xx
p397
F0.125
sV077xx
p398
F0.043478260869565216
sV351xx
p399
F0.09090909090909091
sV662xx
p400
F0.2
sV319xx
p401
F0.0
sV603xx
p402
F0.0
sV230xx
p403
F0.09090909090909091
sV592xx
p404
F0.0
sV132xx
p405
F0.10526315789473684
sV960xx
p406
F0.09090909090909091
sV641xx
p407
F0.24074074074074073
sV259xx
p408
F1.0
sV366xx
p409
F0.07142857142857142
sV795xx
p410
F0.0
sV076xx
p411
F0.14285714285714285
sV481xx
p412
F0.08333333333333333
sV178xx
p413
F0.125
sV352xx
p414
F0.08695652173913043
sV674xx
p415
F0.0
sV424xx
p416
F0.0
sV133xx
p417
F0.0
sV154xx
p418
F0.0
sV181xx
p419
F0.0
sV602xx
p420
F0.0
sV737xx
p421
F0.16666666666666666
sV359xx
p422
F0.1111111111111111
sV106xx
p423
F0.17647058823529413
sV088xx
p424
F0.12162162162162163
sV196xx
p425
F0.0
sV344xx
p426
F0.18181818181818182
sV495xx
p427
F0.2
sV123xx
p428
F0.0
sV436xx
p429
F0.14285714285714285
sV985xx
p430
F0.1111111111111111
sV251xx
p431
F0.0
sV146xx
p432
F0.10810810810810811
sV022xx
p433
F0.0
sV402xx
p434
F0.1388888888888889
sV727xx
p435
F0.1
sV170xx
p436
F0.0
sV806xx
p437
F0.15384615384615385
sV263xx
p438
F0.0
sV811xx
p439
F0.0
sV783xx
p440
F0.14285714285714285
sV317xx
p441
F0.07692307692307693
sV812xx
p442
F0.0
sV018xx
p443
F0.08620689655172414
sV871xx
p444
F0.15384615384615385
sV168xx
p445
F0.0
sV190xx
p446
F0.05194805194805195
sV549xx
p447
F0.2222222222222222
sV287xx
p448
F0.08333333333333333
sV610xx
p449
F0.07692307692307693
sV114xx
p450
F0.1206896551724138
sV408xx
p451
F0.0
sV257xx
p452
F0.0
sV440xx
p453
F0.1346153846153846
sV226xx
p454
F0.2
sV085xx
p455
F0.11428571428571428
sV624xx
p456
F0.0
sV769xx
p457
F0.0
sV976xx
p458
F0.4
sV307xx
p459
F0.16666666666666666
sV828xx
p460
F0.0
sV320xx
p461
F0.225
sV115xx
p462
F0.08695652173913043
sV297xx
p463
F0.0
sV764xx
p464
F0.0
sV447xx
p465
F0.2
sV922xx
p466
F0.1694915254237288
sV227xx
p467
F0.0
sV238xx
p468
F0.14285714285714285
sV086xx
p469
F0.125
sV160xx
p470
F0.0
sV275xx
p471
F0.175
sV337xx
p472
F0.09259259259259259
sV996xx
p473
F0.2
sV067xx
p474
F0.03571428571428571
sV570xx
p475
F0.125
sV822xx
p476
F0.0
sV109xx
p477
F0.13513513513513514
sV489xx
p478
F0.0
sV457xx
p479
F0.0
sV237xx
p480
F0.0
sV927xx
p481
F0.32142857142857145
sV918xx
p482
F0.058823529411764705
sV765xx
p483
F0.125
sV991xx
p484
F0.2
sV374xx
p485
F0.0
sV245xx
p486
F0.11764705882352941
sV367xx
p487
F0.0
sV331xx
p488
F0.15822784810126583
sV990xx
p489
F0.0
sV364xx
p490
F0.0
sV471xx
p491
F0.0
sV032xx
p492
F0.0
sV576xx
p493
F0.0
sV074xx
p494
F0.05263157894736842
sV350xx
p495
F0.1111111111111111
sV594xx
p496
F0.3333333333333333
sV676xx
p497
F0.0
sV743xx
p498
F0.0
sV912xx
p499
F0.3684210526315789
sV231xx
p500
F0.10714285714285714
sV131xx
p501
F0.0
sV156xx
p502
F0.08333333333333333
sV958xx
p503
F0.11688311688311688
sV016xx
p504
F0.0
sV044xx
p505
F0.0
sV104xx
p506
F0.08888888888888889
sV794xx
p507
F0.08333333333333333
sV560xx
p508
F0.0
sV346xx
p509
F0.21621621621621623
sV498xx
p510
F0.0
sV614xx
p511
F0.0
sV461xx
p512
F0.0
sV198xx
p513
F0.1111111111111111
sV434xx
p514
F0.16666666666666666
sV541xx
p515
F0.16666666666666666
sV891xx
p516
F0.24242424242424243
sV618xx
p517
F0.0
sV998xx
p518
F0.0
sV144xx
p519
F0.0
sV479xx
p520
F0.0
sV983xx
p521
F0.13793103448275862
sV400xx
p522
F0.14285714285714285
sV448xx
p523
F0.07142857142857142
sV024xx
p524
F0.13513513513513514
sV358xx
p525
F0.0
sV793xx
p526
F0.2
sV261xx
p527
F0.0
sV176xx
p528
F0.16666666666666666
sV865xx
p529
F0.0
sV685xx
p530
F1.0
sV126xx
p531
F0.0
sV950xx
p532
F0.09473684210526316
sV254xx
p533
F0.0
sV187xx
p534
F0.42857142857142855
sV844xx
p535
F0.0
sV982xx
p536
F0.1111111111111111
sV904xx
p537
F0.047619047619047616
sV416xx
p538
F1.0
sV799xx
p539
F0.10344827586206896
sV650xx
p540
F0.25
sV054xx
p541
F0.0
sV622xx
p542
F0.0
sV267xx
p543
F0.0
sV550xx
p544
F0.024390243902439025
sV784xx
p545
F0.0
sV301xx
p546
F0.1780821917808219
sV773xx
p547
F0.125
sV778xx
p548
F0.07692307692307693
sV020xx
p549
F0.23809523809523808
sV215xx
p550
F0.3333333333333333
sV804xx
p551
F0.09090909090909091
sV117xx
p552
F0.11864406779661017
sV611xx
p553
F0.3333333333333333
sV537xx
p554
F0.0625
sV445xx
p555
F0.0
sV668xx
p556
F0.0
sV225xx
p557
F0.0
sV390xx
p558
F0.0
sV933xx
p559
F0.15
sV084xx
p560
F0.0
sV410xx
p561
F0.0
sV954xx
p562
F0.2
sV458xx
p563
F0.0
sV638xx
p564
F0.5
sV277xx
p565
F0.3333333333333333
sV814xx
p566
F0.0
sV209xx
p567
F0.08
sV908xx
p568
F0.09803921568627451
sV339xx
p569
F0.16
sV616xx
p570
F0.2
sV527xx
p571
F0.0
sV397xx
p572
F0.0
sV446xx
p573
F0.09090909090909091
sV923xx
p574
F0.13978494623655913
sV451xx
p575
F0.2222222222222222
sV239xx
p576
F0.0
sV633xx
p577
F0.1875
sV946xx
p578
F0.03508771929824561
sV993xx
p579
F0.07692307692307693
sV376xx
p580
F0.5
sV028xx
p581
F0.10606060606060606
sV247xx
p582
F0.0
sV761xx
p583
F0.06521739130434782
sV066xx
p584
F0.07142857142857142
sV646xx
p585
F0.0
sV660xx
p586
F0.06896551724137931
sV326xx
p587
F0.10810810810810811
sV753xx
p588
F0.0
sV232xx
p589
F0.11428571428571428
sV488xx
p590
F0.09523809523809523
sV924xx
p591
F0.3333333333333333
sV450xx
p592
F0.18181818181818182
sV469xx
p593
F0.0
sV824xx
p594
F0.0
sV652xx
p595
F0.0
sV094xx
p596
F1.0
sV468xx
p597
F0.0
sV150xx
p598
F0.1
sV474xx
p599
F0.0
sV978xx
p600
F0.0
sV241xx
p601
F0.09090909090909091
sV767xx
p602
F0.0
sV988xx
p603
F0.0
sV068xx
p604
F0.09302325581395349
sV562xx
p605
F0.25
sV775xx
p606
F0.0784313725490196
sV463xx
p607
F0.0
sV596xx
p608
F0.0
sV421xx
p609
F0.0
sV645xx
p610
F0.5
sV830xx
p611
F0.0
sV484xx
p612
F0.23529411764705882
sV151xx
p613
F0.1111111111111111
sV362xx
p614
F0.0
sV653xx
p615
F0.0
sV717xx
p616
F0.0
sV406xx
p617
F0.0
sV791xx
p618
F0.09090909090909091
sV072xx
p619
F0.17647058823529413
sV802xx
p620
F0.0851063829787234
sV670xx
p621
F0.25
sV558xx
p622
F0.25
sV309xx
p623
F0.08333333333333333
sV435xx
p624
F0.0
sV158xx
p625
F0.16666666666666666
sV185xx
p626
F0.0
sV249xx
p627
F0.0
sV980xx
p628
F0.0594059405940594
sV145xx
p629
F0.12
sV707xx
p630
F0.1111111111111111
sV315xx
p631
F0.2222222222222222
sV926xx
p632
F0.12025316455696203
sV260xx
p633
F0.0
sV785xx
p634
F0.08695652173913043
sV864xx
p635
F0.1111111111111111
sV201xx
p636
F0.07291666666666667
sV127xx
p637
F0.0
sV432xx
p638
F0.07142857142857142
sV547xx
p639
F0.0
sV838xx
p640
F0.0
sV159xx
p641
F0.0
sV948xx
p642
F0.0
sV255xx
p643
F0.0
sV142xx
p644
F0.13333333333333333
sV932xx
p645
F0.14285714285714285
sV840xx
p646
F0.1320754716981132
sV986xx
p647
F0.3181818181818182
sV143xx
p648
F0.0
sV931xx
p649
F0.14285714285714285
sV494xx
p650
F0.11764705882352941
sV412xx
p651
F0.0
sV956xx
p652
F0.1839080459770115
sV701xx
p653
F0.034482758620689655
sV282xx
p654
F0.07142857142857142
sV082xx
p655
F0.2
sV816xx
p656
F0.06666666666666667
sV271xx
p657
F0.16666666666666666
sV726xx
p658
F0.0
sV148xx
p659
F0.15384615384615385
sV444xx
p660
F0.125
sV856xx
p661
F0.21739130434782608
sV911xx
p662
F0.0625
sV628xx
p663
F0.18181818181818182
sV411xx
p664
F0.0
sV270xx
p665
F0.0
sV370xx
p666
F0.25
sV648xx
p667
F0.25
sV060xx
p668
F0.11475409836065574
sV324xx
p669
F0.0
sV617xx
p670
F0.125
sV751xx
p671
F0.2
sV666xx
p672
F0.08333333333333333
sV759xx
p673
F0.0
sV223xx
p674
F0.0196078431372549
sV396xx
p675
F0.0
sV452xx
p676
F0.07692307692307693
sV636xx
p677
F0.0
sV601xx
p678
F0.045454545454545456
sV279xx
p679
F0.3333333333333333
sV333xx
p680
F0.12857142857142856
sV992xx
p681
F0.16666666666666666
sV910xx
p682
F0.11538461538461539
sV030xx
p683
F0.1
sV246xx
p684
F0.0
sV574xx
p685
F0.0
sV667xx
p686
F0.0
sV356xx
p687
F0.0
sV233xx
p688
F0.25
sV678xx
p689
F0.0
sV925xx
p690
F0.15294117647058825
sV380xx
p691
F0.0
sV420xx
p692
F0.5
sV454xx
p693
F0.21428571428571427
sV423xx
p694
F0.0
sV590xx
p695
F0.0
sV438xx
p696
F0.0
sV153xx
p697
F0.125
sV360xx
p698
F0.15384615384615385
sV600xx
p699
F0.125
sV880xx
p700
F0.0
sV070xx
p701
F0.125
sV563xx
p702
F0.0
sV655xx
p703
F0.0
sV672xx
p704
F0.06666666666666667
sV013xx
p705
F0.14285714285714285
sV915xx
p706
F0.125
sV135xx
p707
F0.5
sV462xx
p708
F0.0
sV689xx
p709
F1.0
sV101xx
p710
F0.09090909090909091
sV591xx
p711
F0.0
sV644xx
p712
F0.0
sV183xx
p713
F0.1
sV405xx
p714
F0.1111111111111111
sV790xx
p715
F0.25
sV564xx
p716
F0.0
sV342xx
p717
F0.15
sV014xx
p718
F0.4166666666666667
sV671xx
p719
F0.25
sV203xx
p720
F0.0
sV194xx
p721
F0.02
sV430xx
p722
F0.038461538461538464
sV545xx
p723
F0.5
sV121xx
p724
F0.08333333333333333
sV140xx
p725
F0.09375
sV482xx
p726
F0.2
sV182xx
p727
F0.0
sV253xx
p728
F0.4
sV078xx
p729
F0.1
sV805xx
p730
F0.1
sV968xx
p731
F0.125
sV265xx
p732
F0.0
sV809xx
p733
F0.058823529411764705
sV647xx
p734
F0.0
sV786xx
p735
F0.11666666666666667
sV681xx
p736
F0.0
sV734xx
p737
F0.0
sV874xx
p738
F0.16666666666666666
sV195xx
p739
F0.0
sV378xx
p740
F0.0
sV433xx
p741
F0.0
sV535xx
p742
F0.12
sV609xx
p743
F0.0
sV188xx
p744
F0.0
sV534xx
p745
F0.0
sV177xx
p746
F0.0
sV847xx
p747
F0.2
sV442xx
p748
F0.125
sV050xx
p749
F0.0
sV125xx
p750
F0.13636363636363635
sV623xx
p751
F0.0
sV951xx
p752
F0.10679611650485436
sV917xx
p753
F0.19444444444444445
sV780xx
p754
F0.09090909090909091
sV272xx
p755
F0.07142857142857142
sV808xx
p756
F0.2857142857142857
sV211xx
p757
F0.0967741935483871
sV907xx
p758
F0.19672131147540983
sV113xx
p759
F0.09917355371900827
sV149xx
p760
F0.0
sV167xx
p761
F0.0
sV221xx
p762
F0.0967741935483871
sV394xx
p763
F0.0
sV937xx
p764
F0.17647058823529413
sV857xx
p765
F0.18421052631578946
sV898xx
p766
F0.0
sV627xx
p767
F0.0
sV284xx
p768
F0.23076923076923078
sV945xx
p769
F0.12449799196787148
sV974xx
p770
F0.16129032258064516
sV779xx
p771
F0.2
sV368xx
p772
F0.09090909090909091
sV607xx
p773
F0.42857142857142855
sV977xx
p774
F0.09090909090909091
sV572xx
p775
F0.0
sV523xx
p776
F0.0
sV665xx
p777
F0.0
sV750xx
p778
F0.05732484076433121
sV496xx
p779
F1.0
sV850xx
p780
F0.10227272727272728
sV235xx
p781
F0.0
sV096xx
p782
F0.0
sV637xx
p783
F0.0
sV815xx
p784
F0.125
sV296xx
p785
F0.1276595744680851
sV243xx
p786
F0.08333333333333333
sV219xx
p787
F0.0
sV031xx
p788
F0.06666666666666667
sV967xx
p789
F0.11363636363636363
sV573xx
p790
F0.0
sV757xx
p791
F0.07142857142857142
sV606xx
p792
F0.08560311284046693
sV756xx
p793
F0.06666666666666667
sV741xx
p794
F0.10526315789473684
sV593xx
p795
F0.0
sV329xx
p796
F0.15
sV639xx
p797
F0.0
sV439xx
p798
F0.25
sV318xx
p799
F0.25
sV037xx
p800
F0.25
sV258xx
p801
F0.0
sV714xx
p802
F0.0
sV566xx
p803
F0.0
sV961xx
p804
F0.16666666666666666
sV796xx
p805
F0.0
sV179xx
p806
F0.0
sV740xx
p807
F0.043478260869565216
sV860xx
p808
F0.0
sV425xx
p809
F0.0
sV543xx
p810
F0.0
sV834xx
p811
F0.0
sV480xx
p812
F0.13333333333333333
sV155xx
p813
F0.2
sV180xx
p814
F0.23333333333333334
sV713xx
p815
F0.0
sV565xx
p816
F0.0
sV959xx
p817
F0.11363636363636363
sV554xx
p818
F0.09803921568627451
sV015xx
p819
F0.1
sV197xx
p820
F0.12
sV776xx
p821
F0.0
sV431xx
p822
F0.07692307692307693
sV107xx
p823
F0.05555555555555555
sV310xx
p824
F0.18181818181818182
sV984xx
p825
F0.3
sV141xx
p826
F0.0
sV837xx
p827
F0.0
sV139xx
p828
F0.0
sV846xx
p829
F0.09090909090909091
sV229xx
p830
F0.08695652173913043
sV703xx
p831
F0.07692307692307693
sV403xx
p832
F0.0
sV057xx
p833
F0.0
sV890xx
p834
F0.24074074074074073
sV264xx
p835
F0.25
sV748xx
p836
F0.0
sV724xx
p837
F0.4
sV875xx
p838
F0.0
sV025xx
p839
F0.1
ss.