(dp0
S'purpose_br_encoding'
p1
(lp2
F0.0913978494623656
aF0.1048951048951049
aF0.12526652452025586
aF0.16666666666666666
asS'limit_income'
p3
(lp4
F0.08340147179067865
aF0.19726027397260273
asS'dti'
p5
(lp6
F9.57
aF17.56
asS'inq_last_6mths'
p7
(lp8
L0L
aL2L
asS'pub_rec'
p9
(lp10
L0L
aL1L
asS'open_acc'
p11
(lp12
L4L
asS'zip_code_br_encoding'
p13
(lp14
F0.0975609756097561
aF0.15789473684210525
aF0.3
asS'mths_since_last_delinq_clean'
p15
(lp16
I-1
aF38.0
asS'annual_inc'
p17
(lp18
F28296.0
aF40000.0
aF64999.92
aF98000.0
asS'total_acc'
p19
(lp20
L18L
asS'int_rate_clean'
p21
(lp22
F0.0639
aF0.08
aF0.1099
aF0.1392
asS'addr_state_br_encoding'
p23
(lp24
F0.049019607843137254
aF0.1
aF0.12
aF0.1375
asS'mths_since_last_record_clean'
p25
(lp26
I-1
aF80.0
aF98.0
asS'emp_length_clean'
p27
(lp28
S''
p29
asS'earliest_cr_to_app'
p30
(lp31
F119.0
aF191.0
asS'delinq_2yrs'
p32
(lp33
L0L
aL1L
as.