(dp0
S'verification_status'
p1
(dp2
VNot Verified
p3
F-0.02389742058589921
sVVerified
p4
F-0.009533743418409967
sVSource Verified
p5
F0.06233523910089882
ssS'inq_last_6mths_Bin'
p6
(dp7
S'Bin 2'
p8
F-0.5006627871271631
sS'Bin 0'
p9
F0.25645343398759185
sS'Bin 1'
p10
F-0.14031381787550046
ssS'limit_income_Bin'
p11
(dp12
S'Bin 2'
p13
F-0.2408744598163269
sg9
F0.15317334957874407
sS'Bin 1'
p14
F0.1312449917570544
ssS'desc_clean'
p15
(dp16
S'no desc'
p17
F0.017193826501315807
sS'desc'
p18
F-0.00786545508387463
ssS'earliest_cr_to_app_Bin'
p19
(dp20
S'Bin 2'
p21
F0.20086538637344772
sg9
F-0.0993289996863395
sS'Bin 1'
p22
F-0.04412140911718816
ssS'annual_inc_Bin'
p23
(dp24
S'Bin 4'
p25
F0.45962343696200736
sS'Bin 2'
p26
F-0.014171886464421453
sS'Bin 3'
p27
F0.21341392540404888
sg9
F-0.44770939690286676
sS'Bin 1'
p28
F-0.254796125045674
ssS'mths_since_last_record_clean_Bin'
p29
(dp30
S'Bin 4'
p31
F-0.5226891114815143
sS'Bin 2'
p32
F-0.489033160252927
sS'Bin -1'
p33
F0.04745817146123105
sS'Bin 1'
p34
F-0.44048111967076115
ssS'total_acc_Bin'
p35
(dp36
g9
F-0.12583100490296797
sS'Bin 1'
p37
F0.11998266571082575
ssS'purpose_br_encoding_Bin'
p38
(dp39
S'Bin 4'
p40
F-0.8004989417029331
sS'Bin 2'
p41
F-0.05091133089313071
sS'Bin 3'
p42
F-0.3176806348295463
sg9
F0.3644985982243875
sS'Bin 1'
p43
F0.10064985359055842
ssS'addr_state_br_encoding_Bin'
p44
(dp45
S'Bin 4'
p46
F-0.32545764628002755
sS'Bin 2'
p47
F0.017937154024805547
sS'Bin 3'
p48
F-0.16134116604200435
sg9
F1.1200046721598338
sS'Bin 1'
p49
F0.20905801845248723
ssS'zip_code_br_encoding_Bin'
p50
(dp51
S'Bin 2'
p52
F-0.6846625468493284
sS'Bin 3'
p53
F-1.862140133195357
sg9
F0.6657350278329984
sS'Bin 1'
p54
F-0.16324681278805625
ssS'dti_Bin'
p55
(dp56
S'Bin 2'
p57
F-0.18597685604167388
sg9
F0.09976723566448059
sS'Bin 1'
p58
F0.06544346527433445
ssS'int_rate_clean_Bin'
p59
(dp60
S'Bin 4'
p61
F-0.5936588770288765
sS'Bin 2'
p62
F0.1961667346502957
sS'Bin 3'
p63
F-0.1744631817499945
sg9
F1.3166785225931323
sS'Bin 1'
p64
F0.6921070397247528
ssS'pub_rec_Bin'
p65
(dp66
S'Bin 2'
p67
F-0.6435839201015249
sg9
F0.03943058779967053
sS'Bin 1'
p68
F-0.5649157830911551
ssS'mths_since_last_delinq_clean_Bin'
p69
(dp70
S'Bin 3'
p71
F-0.09920560744655778
sS'Bin -1'
p72
F0.04712792914876549
sS'Bin 1'
p73
F-0.06961385691414186
ssS'delinq_2yrs_Bin'
p74
(dp75
S'Bin 2'
p76
F-0.47726270465401144
sg9
F0.023494726275057547
sS'Bin 1'
p77
F-0.07287981328577704
ssS'open_acc_Bin'
p78
(dp79
g9
F-0.30823874296912684
sS'Bin 1'
p80
F0.048819391870068556
ssS'emp_length_clean_Bin'
p81
(dp82
g9
F-0.05966985598384578
sS'Bin 1'
p83
F0.03439568343784925
ssS'home_ownership_Bin'
p84
(dp85
S'Bin 2'
p86
F-0.09885674465985309
sS'Bin 3'
p87
F-0.692374084270957
sS'Bin 0'
p88
F0.15322899102527715
sS'Bin 1'
p89
F-0.055928717387783454
ssS'pub_rec_bankruptcies_clean'
p90
(dp91
F0.0
F0.0349823657662055
sF1.0
F-0.4827671186742803
sF2.0
F-1.6732033372826831
sF-1.0
F-0.29808227676091775
ss.